target datalayout = "e-m:e-p270:32:32-p271:32:32-p272:64:64-i64:64-i128:128-f80:128-n8:16:32:64-S128"
target triple = "x86_64-pc-linux-gnu"

%struct.lv_subject_t = type { %struct.lv_ll_t, %union.lv_subject_value_t, %union.lv_subject_value_t, ptr, i32 }
%struct.lv_ll_t = type { i32, ptr, ptr }
%union.lv_subject_value_t = type { ptr }
%struct._lv_observer_t = type { ptr, ptr, ptr, ptr, i8 }

; Function Attrs: inlinehint nounwind uwtable
define internal void @lv_memzero(ptr noundef %0, i64 noundef %1) #1 {
  %3 = alloca ptr, align 8
  %4 = alloca i64, align 8
  store ptr %0, ptr %3, align 8, !tbaa !3
  store i64 %1, ptr %4, align 8, !tbaa !10
  %5 = load ptr, ptr %3, align 8, !tbaa !3
  %6 = load i64, ptr %4, align 8, !tbaa !10
  call void @lv_memset(ptr noundef %5, i8 noundef zeroext 0, i64 noundef %6)
  ret void
}

; Function Attrs: nounwind uwtable
define ptr @lv_subject_add_observer_obj(ptr noundef %0, ptr noundef %1, ptr noundef %2, ptr noundef %3) #0 {
  %5 = alloca ptr, align 8
  %6 = alloca ptr, align 8
  %7 = alloca ptr, align 8
  %8 = alloca ptr, align 8
  %9 = alloca ptr, align 8
  %10 = alloca ptr, align 8
  %11 = alloca i32, align 4
  store ptr %0, ptr %6, align 8, !tbaa !3
  store ptr %1, ptr %7, align 8, !tbaa !3
  store ptr %2, ptr %8, align 8, !tbaa !26
  store ptr %3, ptr %9, align 8, !tbaa !3
  br label %12

12:                                               ; preds = %4
  %13 = load ptr, ptr %6, align 8, !tbaa !3
  %14 = icmp ne ptr %13, null
  br i1 %14, label %19, label %15

15:                                               ; preds = %12
  br label %16

16:                                               ; preds = %15
  br label %17

17:                                               ; preds = %16
  br label %18

18:                                               ; preds = %17, %18
  br label %18

19:                                               ; preds = %12
  br label %20

20:                                               ; preds = %19
  %21 = load ptr, ptr %6, align 8, !tbaa !3
  %22 = getelementptr inbounds nuw %struct.lv_subject_t, ptr %21, i32 0, i32 4
  %23 = load i32, ptr %22, align 8
  %24 = and i32 %23, 15
  %25 = icmp eq i32 %24, 0
  br i1 %25, label %26, label %29

26:                                               ; preds = %20
  br label %27

27:                                               ; preds = %26
  br label %28

28:                                               ; preds = %27
  store ptr null, ptr %5, align 8
  br label %87

29:                                               ; preds = %20
  call void @llvm.lifetime.start.p0(i64 8, ptr %10) #6
  %30 = load ptr, ptr %6, align 8, !tbaa !3
  %31 = getelementptr inbounds nuw %struct.lv_subject_t, ptr %30, i32 0, i32 0
  %32 = call ptr @lv_ll_ins_tail(ptr noundef %31)
  store ptr %32, ptr %10, align 8, !tbaa !17
  br label %33

33:                                               ; preds = %29
  %34 = load ptr, ptr %10, align 8, !tbaa !17
  %35 = icmp ne ptr %34, null
  br i1 %35, label %42, label %36

36:                                               ; preds = %33
  br label %37

37:                                               ; preds = %36
  br label %38

38:                                               ; preds = %37
  br label %39

39:                                               ; preds = %38
  br label %40

40:                                               ; preds = %41, %39
  br label %41

41:                                               ; preds = %40
  br label %40

42:                                               ; preds = %33
  br label %43

43:                                               ; preds = %42
  br label %44

44:                                               ; preds = %43
  %45 = load ptr, ptr %10, align 8, !tbaa !17
  %46 = icmp eq ptr %45, null
  br i1 %46, label %47, label %48

47:                                               ; preds = %44
  store ptr null, ptr %5, align 8
  store i32 1, ptr %11, align 4
  br label %86

48:                                               ; preds = %44
  %49 = load ptr, ptr %10, align 8, !tbaa !17
  call void @lv_memzero(ptr noundef %49, i64 noundef 40)
  %50 = load ptr, ptr %6, align 8, !tbaa !3
  %51 = load ptr, ptr %10, align 8, !tbaa !17
  %52 = getelementptr inbounds nuw %struct._lv_observer_t, ptr %51, i32 0, i32 0
  store ptr %50, ptr %52, align 8, !tbaa !25
  %53 = load ptr, ptr %7, align 8, !tbaa !3
  %54 = load ptr, ptr %10, align 8, !tbaa !17
  %55 = getelementptr inbounds nuw %struct._lv_observer_t, ptr %54, i32 0, i32 1
  store ptr %53, ptr %55, align 8, !tbaa !28
  %56 = load ptr, ptr %9, align 8, !tbaa !3
  %57 = load ptr, ptr %10, align 8, !tbaa !17
  %58 = getelementptr inbounds nuw %struct._lv_observer_t, ptr %57, i32 0, i32 3
  store ptr %56, ptr %58, align 8, !tbaa !19
  %59 = load ptr, ptr %8, align 8, !tbaa !26
  %60 = load ptr, ptr %10, align 8, !tbaa !17
  %61 = getelementptr inbounds nuw %struct._lv_observer_t, ptr %60, i32 0, i32 2
  store ptr %59, ptr %61, align 8, !tbaa !21
  %62 = load ptr, ptr %10, align 8, !tbaa !17
  %63 = getelementptr inbounds nuw %struct._lv_observer_t, ptr %62, i32 0, i32 4
  %64 = load i8, ptr %63, align 8
  %65 = and i8 %64, -5
  %66 = or i8 %65, 4
  store i8 %66, ptr %63, align 8
  %67 = load ptr, ptr %8, align 8, !tbaa !26
  %68 = icmp ne ptr %67, null
  br i1 %68, label %69, label %73

69:                                               ; preds = %48
  %70 = load ptr, ptr %8, align 8, !tbaa !26
  %71 = load ptr, ptr %10, align 8, !tbaa !17
  %72 = call ptr @lv_obj_add_event_cb(ptr noundef %70, ptr noundef @unsubscribe_on_delete_cb, i32 noundef 41, ptr noundef %71)
  br label %73

73:                                               ; preds = %69, %48
  %74 = load ptr, ptr %10, align 8, !tbaa !17
  %75 = getelementptr inbounds nuw %struct._lv_observer_t, ptr %74, i32 0, i32 1
  %76 = load ptr, ptr %75, align 8, !tbaa !28
  %77 = icmp ne ptr %76, null
  br i1 %77, label %78, label %84

78:                                               ; preds = %73
  %79 = load ptr, ptr %10, align 8, !tbaa !17
  %80 = getelementptr inbounds nuw %struct._lv_observer_t, ptr %79, i32 0, i32 1
  %81 = load ptr, ptr %80, align 8, !tbaa !28
  %82 = load ptr, ptr %10, align 8, !tbaa !17
  %83 = load ptr, ptr %6, align 8, !tbaa !3
  call void %81(ptr noundef %82, ptr noundef %83)
  br label %84

84:                                               ; preds = %78, %73
  %85 = load ptr, ptr %10, align 8, !tbaa !17
  store ptr %85, ptr %5, align 8
  store i32 1, ptr %11, align 4
  br label %86

86:                                               ; preds = %84, %47
  call void @llvm.lifetime.end.p0(i64 8, ptr %10) #6
  br label %87

87:                                               ; preds = %86, %28
  %88 = load ptr, ptr %5, align 8
  ret ptr %88
}

; Function Attrs: nounwind uwtable
define ptr @lv_label_bind_text(ptr noundef %0, ptr noundef %1, ptr noundef %2) #0 {
  %4 = alloca ptr, align 8
  %5 = alloca ptr, align 8
  %6 = alloca ptr, align 8
  %7 = alloca ptr, align 8
  %8 = alloca ptr, align 8
  store ptr %0, ptr %5, align 8, !tbaa !26
  store ptr %1, ptr %6, align 8, !tbaa !3
  store ptr %2, ptr %7, align 8, !tbaa !12
  br label %9

9:                                                ; preds = %3
  %10 = load ptr, ptr %6, align 8, !tbaa !3
  %11 = icmp ne ptr %10, null
  br i1 %11, label %16, label %12

12:                                               ; preds = %9
  br label %13

13:                                               ; preds = %12
  br label %14

14:                                               ; preds = %13
  br label %15

15:                                               ; preds = %14, %15
  br label %15

16:                                               ; preds = %9
  br label %17

17:                                               ; preds = %16
  br label %18

18:                                               ; preds = %17
  %19 = load ptr, ptr %5, align 8, !tbaa !26
  %20 = icmp ne ptr %19, null
  br i1 %20, label %25, label %21

21:                                               ; preds = %18
  br label %22

22:                                               ; preds = %21
  br label %23

23:                                               ; preds = %22
  br label %24

24:                                               ; preds = %23, %24
  br label %24

25:                                               ; preds = %18
  br label %26

26:                                               ; preds = %25
  %27 = load ptr, ptr %7, align 8, !tbaa !12
  %28 = icmp eq ptr %27, null
  br i1 %28, label %29, label %45

29:                                               ; preds = %26
  %30 = load ptr, ptr %6, align 8, !tbaa !3
  %31 = getelementptr inbounds nuw %struct.lv_subject_t, ptr %30, i32 0, i32 4
  %32 = load i32, ptr %31, align 8
  %33 = and i32 %32, 15
  %34 = icmp ne i32 %33, 6
  br i1 %34, label %35, label %44

35:                                               ; preds = %29
  %36 = load ptr, ptr %6, align 8, !tbaa !3
  %37 = getelementptr inbounds nuw %struct.lv_subject_t, ptr %36, i32 0, i32 4
  %38 = load i32, ptr %37, align 8
  %39 = and i32 %38, 15
  %40 = icmp ne i32 %39, 3
  br i1 %40, label %41, label %44

41:                                               ; preds = %35
  br label %42

42:                                               ; preds = %41
  br label %43

43:                                               ; preds = %42
  store ptr null, ptr %4, align 8
  br label %73

44:                                               ; preds = %35, %29
  br label %67

45:                                               ; preds = %26
  %46 = load ptr, ptr %6, align 8, !tbaa !3
  %47 = getelementptr inbounds nuw %struct.lv_subject_t, ptr %46, i32 0, i32 4
  %48 = load i32, ptr %47, align 8
  %49 = and i32 %48, 15
  %50 = icmp ne i32 %49, 6
  br i1 %50, label %51, label %66

51:                                               ; preds = %45
  %52 = load ptr, ptr %6, align 8, !tbaa !3
  %53 = getelementptr inbounds nuw %struct.lv_subject_t, ptr %52, i32 0, i32 4
  %54 = load i32, ptr %53, align 8
  %55 = and i32 %54, 15
  %56 = icmp ne i32 %55, 3
  br i1 %56, label %57, label %66

57:                                               ; preds = %51
  %58 = load ptr, ptr %6, align 8, !tbaa !3
  %59 = getelementptr inbounds nuw %struct.lv_subject_t, ptr %58, i32 0, i32 4
  %60 = load i32, ptr %59, align 8
  %61 = and i32 %60, 15
  %62 = icmp ne i32 %61, 2
  br i1 %62, label %63, label %66

63:                                               ; preds = %57
  br label %64

64:                                               ; preds = %63
  br label %65

65:                                               ; preds = %64
  store ptr null, ptr %4, align 8
  br label %73

66:                                               ; preds = %57, %51, %45
  br label %67

67:                                               ; preds = %66, %44
  call void @llvm.lifetime.start.p0(i64 8, ptr %8) #6
  %68 = load ptr, ptr %6, align 8, !tbaa !3
  %69 = load ptr, ptr %5, align 8, !tbaa !26
  %70 = load ptr, ptr %7, align 8, !tbaa !12
  %71 = call ptr @lv_subject_add_observer_obj(ptr noundef %68, ptr noundef @label_text_observer_cb, ptr noundef %69, ptr noundef %70)
  store ptr %71, ptr %8, align 8, !tbaa !17
  %72 = load ptr, ptr %8, align 8, !tbaa !17
  store ptr %72, ptr %4, align 8
  call void @llvm.lifetime.end.p0(i64 8, ptr %8) #6
  br label %73

73:                                               ; preds = %67, %65, %43
  %74 = load ptr, ptr %4, align 8
  ret ptr %74
}