; Function Attrs: nounwind uwtable
define ptr @lv_label_bind_text(ptr noundef %0, ptr noundef %1, ptr noundef %2) local_unnamed_addr #0 {
  %.not = icmp eq ptr %1, null
  br i1 %.not, label %.preheader, label %4

.preheader:                                       ; preds = %3, %.preheader
  br label %.preheader

4:                                                ; preds = %3
  %.not17 = icmp eq ptr %0, null
  br i1 %.not17, label %.preheader23, label %5

.preheader23:                                     ; preds = %4, %.preheader23
  br label %.preheader23

5:                                                ; preds = %4
  %6 = icmp eq ptr %2, null
  %7 = getelementptr inbounds nuw i8, ptr %1, i64 48
  %8 = load i32, ptr %7, align 8
  %9 = and i32 %8, 15
  br i1 %6, label %10, label %11

10:                                               ; preds = %5
  switch i32 %9, label %lv_subject_add_observer_obj.exit [
    i32 6, label %12
    i32 3, label %12
  ]

11:                                               ; preds = %5
  switch i32 %9, label %lv_subject_add_observer_obj.exit [
    i32 6, label %12
    i32 3, label %12
    i32 2, label %12
  ]

12:                                               ; preds = %11, %11, %11, %10, %10
  %13 = tail call ptr @lv_ll_ins_tail(ptr noundef nonnull %1) #9
  %.not28.i = icmp eq ptr %13, null
  br i1 %.not28.i, label %.preheader31.i, label %14

.preheader31.i:                                   ; preds = %12, %.preheader31.i
  br label %.preheader31.i

14:                                               ; preds = %12
  tail call void @lv_memset(ptr noundef nonnull %13, i8 noundef zeroext 0, i64 noundef 40) #9
  store ptr %1, ptr %13, align 8, !tbaa !9
  %15 = getelementptr inbounds nuw i8, ptr %13, i64 8
  store ptr @label_text_observer_cb, ptr %15, align 8, !tbaa !12
  %16 = getelementptr inbounds nuw i8, ptr %13, i64 24
  store ptr %2, ptr %16, align 8, !tbaa !13
  %17 = getelementptr inbounds nuw i8, ptr %13, i64 16
  store ptr %0, ptr %17, align 8, !tbaa !14
  %18 = getelementptr inbounds nuw i8, ptr %13, i64 32
  %19 = load i8, ptr %18, align 8
  %20 = or i8 %19, 4
  store i8 %20, ptr %18, align 8
  %21 = tail call ptr @lv_obj_add_event_cb(ptr noundef nonnull %0, ptr noundef nonnull @unsubscribe_on_delete_cb, i32 noundef 41, ptr noundef nonnull %13) #9
  %.pre.i = load ptr, ptr %15, align 8, !tbaa !12
  %.not30.i = icmp eq ptr %.pre.i, null
  br i1 %.not30.i, label %lv_subject_add_observer_obj.exit, label %22

22:                                               ; preds = %14
  tail call void %.pre.i(ptr noundef nonnull %13, ptr noundef nonnull %1) #9
  br label %lv_subject_add_observer_obj.exit

lv_subject_add_observer_obj.exit:                 ; preds = %22, %14, %11, %10
  %.0 = phi ptr [ null, %10 ], [ null, %11 ], [ %13, %14 ], [ %13, %22 ]
  ret ptr %.0
}